; Function Attrs: nounwind uwtable
define dso_local i64 @hypothetical_percent_rank_final(ptr noundef readonly captures(none) %0) local_unnamed_addr #0 {
  %2 = alloca i64, align 8
  call void @llvm.lifetime.start.p0(i64 8, ptr nonnull %2) #10
  %3 = call fastcc i64 @hypothetical_rank_common(ptr noundef %0, i32 noundef -1, ptr noundef %2)
  %4 = load i64, ptr %2, align 8
  %5 = icmp eq i64 %4, 0
  br i1 %5, label %12, label %6

6:                                                ; preds = %1
  %7 = add i64 %3, -1
  %8 = sitofp i64 %7 to double
  %9 = sitofp i64 %4 to double
  %10 = fdiv double %8, %9
  %11 = bitcast double %10 to i64
  br label %12

12:                                               ; preds = %1, %6
  %.0 = phi i64 [ %11, %6 ], [ 0, %1 ]
  call void @llvm.lifetime.end.p0(i64 8, ptr nonnull %2) #10
  ret i64 %.0
}